
Proje2_SAKIRVURAL_160707046.elf:     file format elf32-avr

Sections:
Idx Name          Size      VMA       LMA       File off  Algn
  0 .data         00000006  00800100  00000418  000004ac  2**0
                  CONTENTS, ALLOC, LOAD, DATA
  1 .text         00000418  00000000  00000000  00000094  2**1
                  CONTENTS, ALLOC, LOAD, READONLY, CODE
  2 .bss          00000008  00800106  00800106  000004b2  2**0
                  ALLOC
  3 .comment      00000030  00000000  00000000  000004b2  2**0
                  CONTENTS, READONLY
  4 .note.gnu.avr.deviceinfo 00000040  00000000  00000000  000004e4  2**2
                  CONTENTS, READONLY
  5 .debug_aranges 00000048  00000000  00000000  00000524  2**0
                  CONTENTS, READONLY, DEBUGGING
  6 .debug_info   000007e8  00000000  00000000  0000056c  2**0
                  CONTENTS, READONLY, DEBUGGING
  7 .debug_abbrev 00000676  00000000  00000000  00000d54  2**0
                  CONTENTS, READONLY, DEBUGGING
  8 .debug_line   00000463  00000000  00000000  000013ca  2**0
                  CONTENTS, READONLY, DEBUGGING
  9 .debug_frame  000000a8  00000000  00000000  00001830  2**2
                  CONTENTS, READONLY, DEBUGGING
 10 .debug_str    0000040a  00000000  00000000  000018d8  2**0
                  CONTENTS, READONLY, DEBUGGING
 11 .debug_loc    000001cb  00000000  00000000  00001ce2  2**0
                  CONTENTS, READONLY, DEBUGGING
 12 .debug_ranges 00000038  00000000  00000000  00001ead  2**0
                  CONTENTS, READONLY, DEBUGGING

Disassembly of section .text:

00000000 <__vectors>:
   0:	0c 94 3e 00 	jmp	0x7c	; 0x7c <__ctors_end>
   4:	0c 94 5b 00 	jmp	0xb6	; 0xb6 <__bad_interrupt>
   8:	0c 94 5b 00 	jmp	0xb6	; 0xb6 <__bad_interrupt>
   c:	0c 94 5b 00 	jmp	0xb6	; 0xb6 <__bad_interrupt>
  10:	0c 94 5b 00 	jmp	0xb6	; 0xb6 <__bad_interrupt>
  14:	0c 94 5b 00 	jmp	0xb6	; 0xb6 <__bad_interrupt>
  18:	0c 94 5b 00 	jmp	0xb6	; 0xb6 <__bad_interrupt>
  1c:	0c 94 5b 00 	jmp	0xb6	; 0xb6 <__bad_interrupt>
  20:	0c 94 5b 00 	jmp	0xb6	; 0xb6 <__bad_interrupt>
  24:	0c 94 5b 00 	jmp	0xb6	; 0xb6 <__bad_interrupt>
  28:	0c 94 5b 00 	jmp	0xb6	; 0xb6 <__bad_interrupt>
  2c:	0c 94 5b 00 	jmp	0xb6	; 0xb6 <__bad_interrupt>
  30:	0c 94 5b 00 	jmp	0xb6	; 0xb6 <__bad_interrupt>
  34:	0c 94 5b 00 	jmp	0xb6	; 0xb6 <__bad_interrupt>
  38:	0c 94 5b 00 	jmp	0xb6	; 0xb6 <__bad_interrupt>
  3c:	0c 94 5b 00 	jmp	0xb6	; 0xb6 <__bad_interrupt>
  40:	0c 94 5b 00 	jmp	0xb6	; 0xb6 <__bad_interrupt>
  44:	0c 94 5b 00 	jmp	0xb6	; 0xb6 <__bad_interrupt>
  48:	0c 94 5b 00 	jmp	0xb6	; 0xb6 <__bad_interrupt>
  4c:	0c 94 5b 00 	jmp	0xb6	; 0xb6 <__bad_interrupt>
  50:	0c 94 5b 00 	jmp	0xb6	; 0xb6 <__bad_interrupt>
  54:	0c 94 5b 00 	jmp	0xb6	; 0xb6 <__bad_interrupt>
  58:	0c 94 5b 00 	jmp	0xb6	; 0xb6 <__bad_interrupt>
  5c:	0c 94 5b 00 	jmp	0xb6	; 0xb6 <__bad_interrupt>
  60:	0c 94 5b 00 	jmp	0xb6	; 0xb6 <__bad_interrupt>
  64:	0c 94 5b 00 	jmp	0xb6	; 0xb6 <__bad_interrupt>
  68:	66 00       	.word	0x0066	; ????
  6a:	6d 00       	.word	0x006d	; ????
  6c:	73 00       	.word	0x0073	; ????
  6e:	7a 00       	.word	0x007a	; ????
  70:	7f 00       	.word	0x007f	; ????
  72:	86 00       	.word	0x0086	; ????
  74:	8d 00       	.word	0x008d	; ????
  76:	94 00       	.word	0x0094	; ????
  78:	9a 00       	.word	0x009a	; ????
  7a:	a1 00       	.word	0x00a1	; ????

0000007c <__ctors_end>:
  7c:	11 24       	eor	r1, r1
  7e:	1f be       	out	0x3f, r1	; 63
  80:	cf ef       	ldi	r28, 0xFF	; 255
  82:	d8 e0       	ldi	r29, 0x08	; 8
  84:	de bf       	out	0x3e, r29	; 62
  86:	cd bf       	out	0x3d, r28	; 61

00000088 <__do_copy_data>:
  88:	11 e0       	ldi	r17, 0x01	; 1
  8a:	a0 e0       	ldi	r26, 0x00	; 0
  8c:	b1 e0       	ldi	r27, 0x01	; 1
  8e:	e8 e1       	ldi	r30, 0x18	; 24
  90:	f4 e0       	ldi	r31, 0x04	; 4
  92:	02 c0       	rjmp	.+4      	; 0x98 <__do_copy_data+0x10>
  94:	05 90       	lpm	r0, Z+
  96:	0d 92       	st	X+, r0
  98:	a6 30       	cpi	r26, 0x06	; 6
  9a:	b1 07       	cpc	r27, r17
  9c:	d9 f7       	brne	.-10     	; 0x94 <__do_copy_data+0xc>

0000009e <__do_clear_bss>:
  9e:	21 e0       	ldi	r18, 0x01	; 1
  a0:	a6 e0       	ldi	r26, 0x06	; 6
  a2:	b1 e0       	ldi	r27, 0x01	; 1
  a4:	01 c0       	rjmp	.+2      	; 0xa8 <.do_clear_bss_start>

000000a6 <.do_clear_bss_loop>:
  a6:	1d 92       	st	X+, r1

000000a8 <.do_clear_bss_start>:
  a8:	ae 30       	cpi	r26, 0x0E	; 14
  aa:	b2 07       	cpc	r27, r18
  ac:	e1 f7       	brne	.-8      	; 0xa6 <.do_clear_bss_loop>
  ae:	0e 94 d9 01 	call	0x3b2	; 0x3b2 <main>
  b2:	0c 94 0a 02 	jmp	0x414	; 0x414 <_exit>

000000b6 <__bad_interrupt>:
  b6:	0c 94 00 00 	jmp	0	; 0x0 <__vectors>

000000ba <_Z4surei>:
int buton=0;
int bekle=0;
void sure(int gerisar)
{
	
	switch(gerisar)
  ba:	8a 30       	cpi	r24, 0x0A	; 10
  bc:	91 05       	cpc	r25, r1
  be:	08 f0       	brcs	.+2      	; 0xc2 <_Z4surei+0x8>
  c0:	46 c0       	rjmp	.+140    	; 0x14e <_Z4surei+0x94>
  c2:	fc 01       	movw	r30, r24
  c4:	ec 5c       	subi	r30, 0xCC	; 204
  c6:	ff 4f       	sbci	r31, 0xFF	; 255
  c8:	0c 94 04 02 	jmp	0x408	; 0x408 <__tablejump2__>
	{
		case 0:
		PORTD |= 0xF0;//1111 0000
  cc:	8b b1       	in	r24, 0x0b	; 11
  ce:	80 6f       	ori	r24, 0xF0	; 240
  d0:	8b b9       	out	0x0b, r24	; 11
		PORTB |= 0x03;//0000 1011
  d2:	85 b1       	in	r24, 0x05	; 5
  d4:	83 60       	ori	r24, 0x03	; 3
  d6:	85 b9       	out	0x05, r24	; 5
		break;
  d8:	08 95       	ret
		
		case 1:
		PORTD |= 0x60;//0110 0000
  da:	8b b1       	in	r24, 0x0b	; 11
  dc:	80 66       	ori	r24, 0x60	; 96
  de:	8b b9       	out	0x0b, r24	; 11
		PORTB |= 0x00;//0000 1000
  e0:	85 b1       	in	r24, 0x05	; 5
  e2:	85 b9       	out	0x05, r24	; 5
		break;
  e4:	08 95       	ret
		
		case 2:
		PORTD |= 0xB0;//1011 0000
  e6:	8b b1       	in	r24, 0x0b	; 11
  e8:	80 6b       	ori	r24, 0xB0	; 176
  ea:	8b b9       	out	0x0b, r24	; 11
		PORTB |= 0x05;//0000 1101
  ec:	85 b1       	in	r24, 0x05	; 5
  ee:	85 60       	ori	r24, 0x05	; 5
  f0:	85 b9       	out	0x05, r24	; 5
		break;
  f2:	08 95       	ret
		
		case 3:
		PORTD |= 0xF0;//1111 0000
  f4:	8b b1       	in	r24, 0x0b	; 11
  f6:	80 6f       	ori	r24, 0xF0	; 240
  f8:	8b b9       	out	0x0b, r24	; 11
		PORTB |= 0x04;//0000 1100
  fa:	2a 9a       	sbi	0x05, 2	; 5
		break;
  fc:	08 95       	ret
		
		case 4:
		PORTD |= 0x60;//0110 0000
  fe:	8b b1       	in	r24, 0x0b	; 11
 100:	80 66       	ori	r24, 0x60	; 96
 102:	8b b9       	out	0x0b, r24	; 11
		PORTB |= 0x06;//0000 1110
 104:	85 b1       	in	r24, 0x05	; 5
 106:	86 60       	ori	r24, 0x06	; 6
 108:	85 b9       	out	0x05, r24	; 5
		break;
 10a:	08 95       	ret
		
		case 5:
		PORTD |= 0xD0;//1101 0000
 10c:	8b b1       	in	r24, 0x0b	; 11
 10e:	80 6d       	ori	r24, 0xD0	; 208
 110:	8b b9       	out	0x0b, r24	; 11
		PORTB |= 0x06;//0000 1110
 112:	85 b1       	in	r24, 0x05	; 5
 114:	86 60       	ori	r24, 0x06	; 6
 116:	85 b9       	out	0x05, r24	; 5
		break;
 118:	08 95       	ret
		
		case 6:
		PORTD |= 0xD0;//1101 0000
 11a:	8b b1       	in	r24, 0x0b	; 11
 11c:	80 6d       	ori	r24, 0xD0	; 208
 11e:	8b b9       	out	0x0b, r24	; 11
		PORTB |= 0x07;//0000 1111
 120:	85 b1       	in	r24, 0x05	; 5
 122:	87 60       	ori	r24, 0x07	; 7
 124:	85 b9       	out	0x05, r24	; 5
		break;
 126:	08 95       	ret
		
		case 7:
		PORTD |= 0x70;//0111 0000
 128:	8b b1       	in	r24, 0x0b	; 11
 12a:	80 67       	ori	r24, 0x70	; 112
 12c:	8b b9       	out	0x0b, r24	; 11
		PORTB |= 0x00;//0000 1000
 12e:	85 b1       	in	r24, 0x05	; 5
 130:	85 b9       	out	0x05, r24	; 5
		break;
 132:	08 95       	ret
		
		case 8:
		PORTD |= 0xF0;//1111 0000
 134:	8b b1       	in	r24, 0x0b	; 11
 136:	80 6f       	ori	r24, 0xF0	; 240
 138:	8b b9       	out	0x0b, r24	; 11
		PORTB |= 0x07;//0000 1111
 13a:	85 b1       	in	r24, 0x05	; 5
 13c:	87 60       	ori	r24, 0x07	; 7
 13e:	85 b9       	out	0x05, r24	; 5
		break;
 140:	08 95       	ret
		
		case 9:
		PORTD |= 0xF0;//1111 0000
 142:	8b b1       	in	r24, 0x0b	; 11
 144:	80 6f       	ori	r24, 0xF0	; 240
 146:	8b b9       	out	0x0b, r24	; 11
		PORTB |= 0x06;//0000 1110
 148:	85 b1       	in	r24, 0x05	; 5
 14a:	86 60       	ori	r24, 0x06	; 6
 14c:	85 b9       	out	0x05, r24	; 5
 14e:	08 95       	ret

00000150 <_Z8calistirv>:
}


//dijitlerin yandýðý yer
void calistir(){
	if(TCNT1 != bekle){//4MS BEKLEME
 150:	20 91 84 00 	lds	r18, 0x0084	; 0x800084 <__DATA_REGION_ORIGIN__+0x24>
 154:	30 91 85 00 	lds	r19, 0x0085	; 0x800085 <__DATA_REGION_ORIGIN__+0x25>
 158:	80 91 06 01 	lds	r24, 0x0106	; 0x800106 <__data_end>
 15c:	90 91 07 01 	lds	r25, 0x0107	; 0x800107 <__data_end+0x1>
 160:	28 17       	cp	r18, r24
 162:	39 07       	cpc	r19, r25
 164:	59 f0       	breq	.+22     	; 0x17c <_Z8calistirv+0x2c>
		//Portlarý 0lama
		PORTD &=0x00;
 166:	8b b1       	in	r24, 0x0b	; 11
 168:	1b b8       	out	0x0b, r1	; 11
		PORTB &=0x00;
 16a:	85 b1       	in	r24, 0x05	; 5
 16c:	15 b8       	out	0x05, r1	; 5
		PORTB|=0x20;//13 PÝN D2 AÇ
 16e:	2d 9a       	sbi	0x05, 5	; 5
		sure(dakika); //dakika fonksiyon atma PORT 13
 170:	80 91 00 01 	lds	r24, 0x0100	; 0x800100 <__data_start>
 174:	90 91 01 01 	lds	r25, 0x0101	; 0x800101 <__data_start+0x1>
 178:	0e 94 5d 00 	call	0xba	; 0xba <_Z4surei>
	}
	bekle = TCNT1 + 62;//4 ms gecikme üretmek için
 17c:	e4 e8       	ldi	r30, 0x84	; 132
 17e:	f0 e0       	ldi	r31, 0x00	; 0
 180:	80 81       	ld	r24, Z
 182:	91 81       	ldd	r25, Z+1	; 0x01
 184:	ce 96       	adiw	r24, 0x3e	; 62
 186:	90 93 07 01 	sts	0x0107, r25	; 0x800107 <__data_end+0x1>
 18a:	80 93 06 01 	sts	0x0106, r24	; 0x800106 <__data_end>
	if(TCNT1 != bekle){
 18e:	20 81       	ld	r18, Z
 190:	31 81       	ldd	r19, Z+1	; 0x01
 192:	82 17       	cp	r24, r18
 194:	93 07       	cpc	r25, r19
 196:	59 f0       	breq	.+22     	; 0x1ae <_Z8calistirv+0x5e>
		//Portlarý 0lama
		PORTD &=0x00;
 198:	8b b1       	in	r24, 0x0b	; 11
 19a:	1b b8       	out	0x0b, r1	; 11
		PORTB &=0x00;
 19c:	85 b1       	in	r24, 0x05	; 5
 19e:	15 b8       	out	0x05, r1	; 5
		PORTB|=0x10;//12 PÝN D3 AÇ
 1a0:	2c 9a       	sbi	0x05, 4	; 5
		sure(saniye2);//saniye2 fonksiyon atma PORT 12
 1a2:	80 91 02 01 	lds	r24, 0x0102	; 0x800102 <saniye2>
 1a6:	90 91 03 01 	lds	r25, 0x0103	; 0x800103 <saniye2+0x1>
 1aa:	0e 94 5d 00 	call	0xba	; 0xba <_Z4surei>
		
	}
	bekle = TCNT1 + 62;//4 ms gecikme üretmek için
 1ae:	e4 e8       	ldi	r30, 0x84	; 132
 1b0:	f0 e0       	ldi	r31, 0x00	; 0
 1b2:	80 81       	ld	r24, Z
 1b4:	91 81       	ldd	r25, Z+1	; 0x01
 1b6:	ce 96       	adiw	r24, 0x3e	; 62
 1b8:	90 93 07 01 	sts	0x0107, r25	; 0x800107 <__data_end+0x1>
 1bc:	80 93 06 01 	sts	0x0106, r24	; 0x800106 <__data_end>
	if(TCNT1 != bekle){
 1c0:	20 81       	ld	r18, Z
 1c2:	31 81       	ldd	r19, Z+1	; 0x01
 1c4:	82 17       	cp	r24, r18
 1c6:	93 07       	cpc	r25, r19
 1c8:	59 f0       	breq	.+22     	; 0x1e0 <_Z8calistirv+0x90>
		//Portlarý 0lama
		PORTD &=0x00;
 1ca:	8b b1       	in	r24, 0x0b	; 11
 1cc:	1b b8       	out	0x0b, r1	; 11
		PORTB &=0x00;
 1ce:	85 b1       	in	r24, 0x05	; 5
 1d0:	15 b8       	out	0x05, r1	; 5
		PORTB|=0x08;//11 PÝN D4
 1d2:	2b 9a       	sbi	0x05, 3	; 5
		sure(saniye1);//saniye1 fonksiyon atma PORT 11
 1d4:	80 91 04 01 	lds	r24, 0x0104	; 0x800104 <saniye1>
 1d8:	90 91 05 01 	lds	r25, 0x0105	; 0x800105 <saniye1+0x1>
 1dc:	0e 94 5d 00 	call	0xba	; 0xba <_Z4surei>
	}
	bekle = TCNT1 + 62;//4 ms gecikme üretmek için0 lama
 1e0:	80 91 84 00 	lds	r24, 0x0084	; 0x800084 <__DATA_REGION_ORIGIN__+0x24>
 1e4:	90 91 85 00 	lds	r25, 0x0085	; 0x800085 <__DATA_REGION_ORIGIN__+0x25>
 1e8:	ce 96       	adiw	r24, 0x3e	; 62
 1ea:	90 93 07 01 	sts	0x0107, r25	; 0x800107 <__data_end+0x1>
 1ee:	80 93 06 01 	sts	0x0106, r24	; 0x800106 <__data_end>
 1f2:	08 95       	ret

000001f4 <_Z7azaltmav>:
}

void azaltma(){//her sn azaltma iþlemi
	TCNT1=0;
 1f4:	10 92 85 00 	sts	0x0085, r1	; 0x800085 <__DATA_REGION_ORIGIN__+0x25>
 1f8:	10 92 84 00 	sts	0x0084, r1	; 0x800084 <__DATA_REGION_ORIGIN__+0x24>
	PIND=0x00;
 1fc:	19 b8       	out	0x09, r1	; 9
	saniye1--;
 1fe:	80 91 04 01 	lds	r24, 0x0104	; 0x800104 <saniye1>
 202:	90 91 05 01 	lds	r25, 0x0105	; 0x800105 <saniye1+0x1>
 206:	01 97       	sbiw	r24, 0x01	; 1
 208:	28 f0       	brcs	.+10     	; 0x214 <_Z7azaltmav+0x20>
 20a:	90 93 05 01 	sts	0x0105, r25	; 0x800105 <saniye1+0x1>
 20e:	80 93 04 01 	sts	0x0104, r24	; 0x800104 <saniye1>
 212:	08 95       	ret

	if(saniye1==-1){//0 dan sonra -1 olunca sn sað kýsmýný 9la
		saniye1=9;
 214:	89 e0       	ldi	r24, 0x09	; 9
 216:	90 e0       	ldi	r25, 0x00	; 0
 218:	90 93 05 01 	sts	0x0105, r25	; 0x800105 <saniye1+0x1>
 21c:	80 93 04 01 	sts	0x0104, r24	; 0x800104 <saniye1>
		saniye2--;
 220:	80 91 02 01 	lds	r24, 0x0102	; 0x800102 <saniye2>
 224:	90 91 03 01 	lds	r25, 0x0103	; 0x800103 <saniye2+0x1>
 228:	01 97       	sbiw	r24, 0x01	; 1
 22a:	28 f0       	brcs	.+10     	; 0x236 <_Z7azaltmav+0x42>
 22c:	90 93 03 01 	sts	0x0103, r25	; 0x800103 <saniye2+0x1>
 230:	80 93 02 01 	sts	0x0102, r24	; 0x800102 <saniye2>
 234:	08 95       	ret

		if(saniye2==-1){//0 dan sonra -1 gelince sn sol kýsmýný 5le
			
			saniye2=5;
 236:	85 e0       	ldi	r24, 0x05	; 5
 238:	90 e0       	ldi	r25, 0x00	; 0
 23a:	90 93 03 01 	sts	0x0103, r25	; 0x800103 <saniye2+0x1>
 23e:	80 93 02 01 	sts	0x0102, r24	; 0x800102 <saniye2>
			dakika--;
 242:	80 91 00 01 	lds	r24, 0x0100	; 0x800100 <__data_start>
 246:	90 91 01 01 	lds	r25, 0x0101	; 0x800101 <__data_start+0x1>
 24a:	01 97       	sbiw	r24, 0x01	; 1
 24c:	28 f0       	brcs	.+10     	; 0x258 <_Z7azaltmav+0x64>
 24e:	90 93 01 01 	sts	0x0101, r25	; 0x800101 <__data_start+0x1>
 252:	80 93 00 01 	sts	0x0100, r24	; 0x800100 <__data_start>
 256:	08 95       	ret
			
			if(dakika==-1){////0 dan sonra -1 gelince dakika kýsmýný 9le
				dakika=9;
 258:	89 e0       	ldi	r24, 0x09	; 9
 25a:	90 e0       	ldi	r25, 0x00	; 0
 25c:	90 93 01 01 	sts	0x0101, r25	; 0x800101 <__data_start+0x1>
 260:	80 93 00 01 	sts	0x0100, r24	; 0x800100 <__data_start>
 264:	08 95       	ret

00000266 <_Z5resetv>:

	}
	
}
void reset(){//resetleme iþlemi
	TCNT1=0;
 266:	10 92 85 00 	sts	0x0085, r1	; 0x800085 <__DATA_REGION_ORIGIN__+0x25>
 26a:	10 92 84 00 	sts	0x0084, r1	; 0x800084 <__DATA_REGION_ORIGIN__+0x24>
	saniye1=9;
 26e:	89 e0       	ldi	r24, 0x09	; 9
 270:	90 e0       	ldi	r25, 0x00	; 0
 272:	90 93 05 01 	sts	0x0105, r25	; 0x800105 <saniye1+0x1>
 276:	80 93 04 01 	sts	0x0104, r24	; 0x800104 <saniye1>
	saniye2=5;
 27a:	25 e0       	ldi	r18, 0x05	; 5
 27c:	30 e0       	ldi	r19, 0x00	; 0
 27e:	30 93 03 01 	sts	0x0103, r19	; 0x800103 <saniye2+0x1>
 282:	20 93 02 01 	sts	0x0102, r18	; 0x800102 <saniye2>
	dakika=9;
 286:	90 93 01 01 	sts	0x0101, r25	; 0x800101 <__data_start+0x1>
 28a:	80 93 00 01 	sts	0x0100, r24	; 0x800100 <__data_start>
 28e:	08 95       	ret

00000290 <_Z6bekletv>:
}
void beklet(){//bekletme için yanýp sönme
 290:	af 92       	push	r10
 292:	bf 92       	push	r11
 294:	cf 92       	push	r12
 296:	df 92       	push	r13
 298:	ef 92       	push	r14
 29a:	ff 92       	push	r15
 29c:	0f 93       	push	r16
 29e:	1f 93       	push	r17
 2a0:	cf 93       	push	r28
 2a2:	df 93       	push	r29
	
	cik=0;
 2a4:	10 92 0d 01 	sts	0x010D, r1	; 0x80010d <cik+0x1>
 2a8:	10 92 0c 01 	sts	0x010C, r1	; 0x80010c <cik>
	TCNT1=0;
 2ac:	10 92 85 00 	sts	0x0085, r1	; 0x800085 <__DATA_REGION_ORIGIN__+0x25>
 2b0:	10 92 84 00 	sts	0x0084, r1	; 0x800084 <__DATA_REGION_ORIGIN__+0x24>
	PIND=0x00;
 2b4:	19 b8       	out	0x09, r1	; 9
		//cikis kontrol et
		if((PIND&(1<<3))){
			if(buton==1){//BUTON 1 EÞÝT MÝ DÝYE KONTROL EDÝYORUM ÇUNKU GERÝ SAYARKEN BEKLET BASTIÐIMIZDA BUTON ANLIK OLARAK TEKRAR ÇALIÞMASIN DÝYE
				buton=2;//DEVAM ETTÝÐÝNDE TEKRAR BEKLEMEYE MARUZ KALMASIN
				cik=1;
				TCNT1=0;
 2b6:	c4 e8       	ldi	r28, 0x84	; 132
 2b8:	d0 e0       	ldi	r29, 0x00	; 0
			reset();
		}
		//cikis kontrol et
		if((PIND&(1<<3))){
			if(buton==1){//BUTON 1 EÞÝT MÝ DÝYE KONTROL EDÝYORUM ÇUNKU GERÝ SAYARKEN BEKLET BASTIÐIMIZDA BUTON ANLIK OLARAK TEKRAR ÇALIÞMASIN DÝYE
				buton=2;//DEVAM ETTÝÐÝNDE TEKRAR BEKLEMEYE MARUZ KALMASIN
 2ba:	68 94       	set
 2bc:	ee 24       	eor	r14, r14
 2be:	e1 f8       	bld	r14, 1
 2c0:	f1 2c       	mov	r15, r1
				cik=1;
 2c2:	01 e0       	ldi	r16, 0x01	; 1
 2c4:	10 e0       	ldi	r17, 0x00	; 0
					reset();
				}
				//cikis kontrol et
				if((PIND&(1<<3))){
					if(buton==1){
						buton=2;//DEVAM ETTÝÐÝNDE TEKRAR BEKLEMEYE MARUZ KALMASIN
 2c6:	ae 2c       	mov	r10, r14
 2c8:	bf 2c       	mov	r11, r15
						cik=1;
 2ca:	c0 2e       	mov	r12, r16
 2cc:	d1 2e       	mov	r13, r17
	
	cik=0;
	TCNT1=0;
	PIND=0x00;
	//önce 1 sn yak
	while(cik!=1){
 2ce:	80 91 0c 01 	lds	r24, 0x010C	; 0x80010c <cik>
 2d2:	90 91 0d 01 	lds	r25, 0x010D	; 0x80010d <cik+0x1>
 2d6:	01 97       	sbiw	r24, 0x01	; 1
 2d8:	09 f4       	brne	.+2      	; 0x2dc <_Z6bekletv+0x4c>
 2da:	60 c0       	rjmp	.+192    	; 0x39c <_Z6bekletv+0x10c>
		//dijitlerin yandýðý fonksiyon
		calistir();
 2dc:	0e 94 a8 00 	call	0x150	; 0x150 <_Z8calistirv>
		//resetle ve beklet
		if((PIND&(1<<2))){
 2e0:	4a 99       	sbic	0x09, 2	; 9
			reset();
 2e2:	0e 94 33 01 	call	0x266	; 0x266 <_Z5resetv>
		}
		//cikis kontrol et
		if((PIND&(1<<3))){
 2e6:	4b 9b       	sbis	0x09, 3	; 9
 2e8:	10 c0       	rjmp	.+32     	; 0x30a <_Z6bekletv+0x7a>
			if(buton==1){//BUTON 1 EÞÝT MÝ DÝYE KONTROL EDÝYORUM ÇUNKU GERÝ SAYARKEN BEKLET BASTIÐIMIZDA BUTON ANLIK OLARAK TEKRAR ÇALIÞMASIN DÝYE
 2ea:	80 91 08 01 	lds	r24, 0x0108	; 0x800108 <buton>
 2ee:	90 91 09 01 	lds	r25, 0x0109	; 0x800109 <buton+0x1>
 2f2:	01 97       	sbiw	r24, 0x01	; 1
 2f4:	51 f4       	brne	.+20     	; 0x30a <_Z6bekletv+0x7a>
				buton=2;//DEVAM ETTÝÐÝNDE TEKRAR BEKLEMEYE MARUZ KALMASIN
 2f6:	e0 92 08 01 	sts	0x0108, r14	; 0x800108 <buton>
 2fa:	f0 92 09 01 	sts	0x0109, r15	; 0x800109 <buton+0x1>
				cik=1;
 2fe:	00 93 0c 01 	sts	0x010C, r16	; 0x80010c <cik>
 302:	10 93 0d 01 	sts	0x010D, r17	; 0x80010d <cik+0x1>
				TCNT1=0;
 306:	19 82       	std	Y+1, r1	; 0x01
 308:	18 82       	st	Y, r1
			}
			
		}
		
		//1sn söndürme iþlemi
		if(TCNT1>=15625 && sayac==0){  //1 SN SONRA SÖNDÜRME
 30a:	88 81       	ld	r24, Y
 30c:	99 81       	ldd	r25, Y+1	; 0x01
 30e:	89 30       	cpi	r24, 0x09	; 9
 310:	9d 43       	sbci	r25, 0x3D	; 61
 312:	e8 f2       	brcs	.-70     	; 0x2ce <_Z6bekletv+0x3e>
 314:	80 91 0a 01 	lds	r24, 0x010A	; 0x80010a <sayac>
 318:	90 91 0b 01 	lds	r25, 0x010B	; 0x80010b <sayac+0x1>
 31c:	89 2b       	or	r24, r25
 31e:	b9 f6       	brne	.-82     	; 0x2ce <_Z6bekletv+0x3e>
 320:	2b c0       	rjmp	.+86     	; 0x378 <_Z6bekletv+0xe8>
			buton=1;
			sayac=1;
			TCNT1=0;//zamaný 0la
			while(sayac!=0){
 322:	80 91 0a 01 	lds	r24, 0x010A	; 0x80010a <sayac>
 326:	90 91 0b 01 	lds	r25, 0x010B	; 0x80010b <sayac+0x1>
 32a:	89 2b       	or	r24, r25
 32c:	81 f2       	breq	.-96     	; 0x2ce <_Z6bekletv+0x3e>
				//resetle ve beklet
				if((PIND&(1<<2))){
 32e:	4a 99       	sbic	0x09, 2	; 9
					reset();
 330:	0e 94 33 01 	call	0x266	; 0x266 <_Z5resetv>
				}
				//cikis kontrol et
				if((PIND&(1<<3))){
 334:	4b 9b       	sbis	0x09, 3	; 9
 336:	10 c0       	rjmp	.+32     	; 0x358 <_Z6bekletv+0xc8>
					if(buton==1){
 338:	80 91 08 01 	lds	r24, 0x0108	; 0x800108 <buton>
 33c:	90 91 09 01 	lds	r25, 0x0109	; 0x800109 <buton+0x1>
 340:	01 97       	sbiw	r24, 0x01	; 1
 342:	51 f4       	brne	.+20     	; 0x358 <_Z6bekletv+0xc8>
						buton=2;//DEVAM ETTÝÐÝNDE TEKRAR BEKLEMEYE MARUZ KALMASIN
 344:	a0 92 08 01 	sts	0x0108, r10	; 0x800108 <buton>
 348:	b0 92 09 01 	sts	0x0109, r11	; 0x800109 <buton+0x1>
						cik=1;
 34c:	c0 92 0c 01 	sts	0x010C, r12	; 0x80010c <cik>
 350:	d0 92 0d 01 	sts	0x010D, r13	; 0x80010d <cik+0x1>
						TCNT1=0;
 354:	19 82       	std	Y+1, r1	; 0x01
 356:	18 82       	st	Y, r1
					}
					
				}

				PORTD &=0x00;
 358:	8b b1       	in	r24, 0x0b	; 11
 35a:	1b b8       	out	0x0b, r1	; 11
				PORTB &=0x00;
 35c:	85 b1       	in	r24, 0x05	; 5
 35e:	15 b8       	out	0x05, r1	; 5
				if(TCNT1>=15625 && sayac==1){ //1SN SONRA TEKRAR YAKMA
 360:	88 81       	ld	r24, Y
 362:	99 81       	ldd	r25, Y+1	; 0x01
 364:	89 30       	cpi	r24, 0x09	; 9
 366:	9d 43       	sbci	r25, 0x3D	; 61
 368:	e0 f2       	brcs	.-72     	; 0x322 <_Z6bekletv+0x92>
 36a:	80 91 0a 01 	lds	r24, 0x010A	; 0x80010a <sayac>
 36e:	90 91 0b 01 	lds	r25, 0x010B	; 0x80010b <sayac+0x1>
 372:	01 97       	sbiw	r24, 0x01	; 1
 374:	b1 f6       	brne	.-84     	; 0x322 <_Z6bekletv+0x92>
 376:	0b c0       	rjmp	.+22     	; 0x38e <_Z6bekletv+0xfe>
			
		}
		
		//1sn söndürme iþlemi
		if(TCNT1>=15625 && sayac==0){  //1 SN SONRA SÖNDÜRME
			buton=1;
 378:	00 93 08 01 	sts	0x0108, r16	; 0x800108 <buton>
 37c:	10 93 09 01 	sts	0x0109, r17	; 0x800109 <buton+0x1>
			sayac=1;
 380:	00 93 0a 01 	sts	0x010A, r16	; 0x80010a <sayac>
 384:	10 93 0b 01 	sts	0x010B, r17	; 0x80010b <sayac+0x1>
			TCNT1=0;//zamaný 0la
 388:	19 82       	std	Y+1, r1	; 0x01
 38a:	18 82       	st	Y, r1
 38c:	ca cf       	rjmp	.-108    	; 0x322 <_Z6bekletv+0x92>
				}

				PORTD &=0x00;
				PORTB &=0x00;
				if(TCNT1>=15625 && sayac==1){ //1SN SONRA TEKRAR YAKMA
					TCNT1=0;
 38e:	19 82       	std	Y+1, r1	; 0x01
 390:	18 82       	st	Y, r1
					sayac=0;
 392:	10 92 0b 01 	sts	0x010B, r1	; 0x80010b <sayac+0x1>
 396:	10 92 0a 01 	sts	0x010A, r1	; 0x80010a <sayac>
 39a:	c3 cf       	rjmp	.-122    	; 0x322 <_Z6bekletv+0x92>

		}
		
	}
	
}
 39c:	df 91       	pop	r29
 39e:	cf 91       	pop	r28
 3a0:	1f 91       	pop	r17
 3a2:	0f 91       	pop	r16
 3a4:	ff 90       	pop	r15
 3a6:	ef 90       	pop	r14
 3a8:	df 90       	pop	r13
 3aa:	cf 90       	pop	r12
 3ac:	bf 90       	pop	r11
 3ae:	af 90       	pop	r10
 3b0:	08 95       	ret

000003b2 <main>:


int main(){
	//pinler
	DDRD |=0xF0;//1111 0000
 3b2:	8a b1       	in	r24, 0x0a	; 10
 3b4:	80 6f       	ori	r24, 0xF0	; 240
 3b6:	8a b9       	out	0x0a, r24	; 10
	DDRB |=0xFF;//1111 1111
 3b8:	84 b1       	in	r24, 0x04	; 4
 3ba:	8f ef       	ldi	r24, 0xFF	; 255
 3bc:	84 b9       	out	0x04, r24	; 4
	TCCR1B |= ((1<<CS12)|(1<<CS10));//portlarý ayarladýk
 3be:	e1 e8       	ldi	r30, 0x81	; 129
 3c0:	f0 e0       	ldi	r31, 0x00	; 0
 3c2:	80 81       	ld	r24, Z
 3c4:	85 60       	ori	r24, 0x05	; 5
 3c6:	80 83       	st	Z, r24
			if(buton==0)
			beklet();
		}
		//1sn azalt iþlemi
		else{
			if(TCNT1>=15625){
 3c8:	c4 e8       	ldi	r28, 0x84	; 132
 3ca:	d0 e0       	ldi	r29, 0x00	; 0
	DDRB |=0xFF;//1111 1111
	TCCR1B |= ((1<<CS12)|(1<<CS10));//portlarý ayarladýk

	while(1){
		//SEVENSEGMENT YAKMA
		calistir();
 3cc:	0e 94 a8 00 	call	0x150	; 0x150 <_Z8calistirv>

		//reset buton kontrol 2.pim
		if((PIND&(1<<2))){
 3d0:	4a 9b       	sbis	0x09, 2	; 9
 3d2:	03 c0       	rjmp	.+6      	; 0x3da <main+0x28>
			reset();
 3d4:	0e 94 33 01 	call	0x266	; 0x266 <_Z5resetv>
 3d8:	f9 cf       	rjmp	.-14     	; 0x3cc <main+0x1a>
		}
		//1 sn aralýkla yakýp söndürme duraklatma iþlemi 3.pin
		else if((PIND&(1<<3))){
 3da:	4b 9b       	sbis	0x09, 3	; 9
 3dc:	09 c0       	rjmp	.+18     	; 0x3f0 <main+0x3e>
			if(buton==0)
 3de:	80 91 08 01 	lds	r24, 0x0108	; 0x800108 <buton>
 3e2:	90 91 09 01 	lds	r25, 0x0109	; 0x800109 <buton+0x1>
 3e6:	89 2b       	or	r24, r25
 3e8:	89 f7       	brne	.-30     	; 0x3cc <main+0x1a>
			beklet();
 3ea:	0e 94 48 01 	call	0x290	; 0x290 <_Z6bekletv>
 3ee:	ee cf       	rjmp	.-36     	; 0x3cc <main+0x1a>
		}
		//1sn azalt iþlemi
		else{
			if(TCNT1>=15625){
 3f0:	88 81       	ld	r24, Y
 3f2:	99 81       	ldd	r25, Y+1	; 0x01
 3f4:	89 30       	cpi	r24, 0x09	; 9
 3f6:	9d 43       	sbci	r25, 0x3D	; 61
 3f8:	48 f3       	brcs	.-46     	; 0x3cc <main+0x1a>
				buton=0;
 3fa:	10 92 09 01 	sts	0x0109, r1	; 0x800109 <buton+0x1>
 3fe:	10 92 08 01 	sts	0x0108, r1	; 0x800108 <buton>
				azaltma();
 402:	0e 94 fa 00 	call	0x1f4	; 0x1f4 <_Z7azaltmav>
 406:	e2 cf       	rjmp	.-60     	; 0x3cc <main+0x1a>

00000408 <__tablejump2__>:
 408:	ee 0f       	add	r30, r30
 40a:	ff 1f       	adc	r31, r31
 40c:	05 90       	lpm	r0, Z+
 40e:	f4 91       	lpm	r31, Z
 410:	e0 2d       	mov	r30, r0
 412:	09 94       	ijmp

00000414 <_exit>:
 414:	f8 94       	cli

00000416 <__stop_program>:
 416:	ff cf       	rjmp	.-2      	; 0x416 <__stop_program>
